; ModuleID = '46/230.c'
source_filename = "46/230.c"
target datalayout = "e-m:e-p270:32:32-p271:32:32-p272:64:64-i64:64-f80:128-n8:16:32:64-S128"
target triple = "x86_64-pc-linux-gnu"

@.str = private unnamed_addr constant [5 x i8] c"%d%d\00", align 1
@.str.1 = private unnamed_addr constant [3 x i8] c"%d\00", align 1
@.str.2 = private unnamed_addr constant [4 x i8] c"%d\0A\00", align 1

; Function Attrs: noinline nounwind uwtable
define dso_local i32 @main() #0 {
  %1 = alloca i32, align 4
  %2 = alloca i32, align 4
  %3 = alloca i32, align 4
  %4 = alloca i32, align 4
  %5 = alloca i32, align 4
  %6 = alloca i32, align 4
  %7 = alloca [100 x [100 x i32]], align 16
  store i32 0, i32* %1, align 4
  %8 = call i32 (i8*, ...) @__isoc99_scanf(i8* getelementptr inbounds ([5 x i8], [5 x i8]* @.str, i64 0, i64 0), i32* %5, i32* %6)
  store i32 0, i32* %3, align 4
  br label %9

9:                                                ; preds = %30, %0
  %10 = load i32, i32* %3, align 4
  %11 = load i32, i32* %5, align 4
  %12 = icmp slt i32 %10, %11
  br i1 %12, label %13, label %33

13:                                               ; preds = %9
  store i32 0, i32* %4, align 4
  br label %14

14:                                               ; preds = %26, %13
  %15 = load i32, i32* %4, align 4
  %16 = load i32, i32* %6, align 4
  %17 = icmp slt i32 %15, %16
  br i1 %17, label %18, label %29

18:                                               ; preds = %14
  %19 = load i32, i32* %3, align 4
  %20 = sext i32 %19 to i64
  %21 = getelementptr inbounds [100 x [100 x i32]], [100 x [100 x i32]]* %7, i64 0, i64 %20
  %22 = load i32, i32* %4, align 4
  %23 = sext i32 %22 to i64
  %24 = getelementptr inbounds [100 x i32], [100 x i32]* %21, i64 0, i64 %23
  %25 = call i32 (i8*, ...) @__isoc99_scanf(i8* getelementptr inbounds ([3 x i8], [3 x i8]* @.str.1, i64 0, i64 0), i32* %24)
  br label %26

26:                                               ; preds = %18
  %27 = load i32, i32* %4, align 4
  %28 = add nsw i32 %27, 1
  store i32 %28, i32* %4, align 4
  br label %14

29:                                               ; preds = %14
  br label %30

30:                                               ; preds = %29
  %31 = load i32, i32* %3, align 4
  %32 = add nsw i32 %31, 1
  store i32 %32, i32* %3, align 4
  br label %9

33:                                               ; preds = %9
  store i32 0, i32* %2, align 4
  br label %34

34:                                               ; preds = %154, %33
  %35 = load i32, i32* %2, align 4
  %36 = load i32, i32* %5, align 4
  %37 = sdiv i32 %36, 2
  %38 = icmp sle i32 %35, %37
  br i1 %38, label %39, label %44

39:                                               ; preds = %34
  %40 = load i32, i32* %2, align 4
  %41 = load i32, i32* %6, align 4
  %42 = sdiv i32 %41, 2
  %43 = icmp sle i32 %40, %42
  br label %44

44:                                               ; preds = %39, %34
  %45 = phi i1 [ false, %34 ], [ %43, %39 ]
  br i1 %45, label %46, label %157

46:                                               ; preds = %44
  %47 = load i32, i32* %2, align 4
  store i32 %47, i32* %4, align 4
  br label %48

48:                                               ; preds = %64, %46
  %49 = load i32, i32* %4, align 4
  %50 = load i32, i32* %6, align 4
  %51 = sub nsw i32 %50, 1
  %52 = load i32, i32* %2, align 4
  %53 = sub nsw i32 %51, %52
  %54 = icmp sle i32 %49, %53
  br i1 %54, label %55, label %67

55:                                               ; preds = %48
  %56 = load i32, i32* %2, align 4
  %57 = sext i32 %56 to i64
  %58 = getelementptr inbounds [100 x [100 x i32]], [100 x [100 x i32]]* %7, i64 0, i64 %57
  %59 = load i32, i32* %4, align 4
  %60 = sext i32 %59 to i64
  %61 = getelementptr inbounds [100 x i32], [100 x i32]* %58, i64 0, i64 %60
  %62 = load i32, i32* %61, align 4
  %63 = call i32 (i8*, ...) @printf(i8* getelementptr inbounds ([4 x i8], [4 x i8]* @.str.2, i64 0, i64 0), i32 %62)
  br label %64

64:                                               ; preds = %55
  %65 = load i32, i32* %4, align 4
  %66 = add nsw i32 %65, 1
  store i32 %66, i32* %4, align 4
  br label %48

67:                                               ; preds = %48
  %68 = load i32, i32* %2, align 4
  %69 = add nsw i32 %68, 1
  store i32 %69, i32* %3, align 4
  br label %70

70:                                               ; preds = %89, %67
  %71 = load i32, i32* %3, align 4
  %72 = load i32, i32* %5, align 4
  %73 = load i32, i32* %2, align 4
  %74 = sub nsw i32 %72, %73
  %75 = sub nsw i32 %74, 1
  %76 = icmp sle i32 %71, %75
  br i1 %76, label %77, label %92

77:                                               ; preds = %70
  %78 = load i32, i32* %3, align 4
  %79 = sext i32 %78 to i64
  %80 = getelementptr inbounds [100 x [100 x i32]], [100 x [100 x i32]]* %7, i64 0, i64 %79
  %81 = load i32, i32* %6, align 4
  %82 = sub nsw i32 %81, 1
  %83 = load i32, i32* %2, align 4
  %84 = sub nsw i32 %82, %83
  %85 = sext i32 %84 to i64
  %86 = getelementptr inbounds [100 x i32], [100 x i32]* %80, i64 0, i64 %85
  %87 = load i32, i32* %86, align 4
  %88 = call i32 (i8*, ...) @printf(i8* getelementptr inbounds ([4 x i8], [4 x i8]* @.str.2, i64 0, i64 0), i32 %87)
  br label %89

89:                                               ; preds = %77
  %90 = load i32, i32* %3, align 4
  %91 = add nsw i32 %90, 1
  store i32 %91, i32* %3, align 4
  br label %70

92:                                               ; preds = %70
  %93 = load i32, i32* %5, align 4
  %94 = sub nsw i32 %93, 1
  %95 = load i32, i32* %2, align 4
  %96 = sub nsw i32 %94, %95
  %97 = load i32, i32* %2, align 4
  %98 = icmp sle i32 %96, %97
  br i1 %98, label %99, label %100

99:                                               ; preds = %92
  br label %157

100:                                              ; preds = %92
  %101 = load i32, i32* %6, align 4
  %102 = load i32, i32* %2, align 4
  %103 = sub nsw i32 %101, %102
  %104 = sub nsw i32 %103, 2
  store i32 %104, i32* %4, align 4
  br label %105

105:                                              ; preds = %121, %100
  %106 = load i32, i32* %4, align 4
  %107 = load i32, i32* %2, align 4
  %108 = icmp sge i32 %106, %107
  br i1 %108, label %109, label %124

109:                                              ; preds = %105
  %110 = load i32, i32* %5, align 4
  %111 = sub nsw i32 %110, 1
  %112 = load i32, i32* %2, align 4
  %113 = sub nsw i32 %111, %112
  %114 = sext i32 %113 to i64
  %115 = getelementptr inbounds [100 x [100 x i32]], [100 x [100 x i32]]* %7, i64 0, i64 %114
  %116 = load i32, i32* %4, align 4
  %117 = sext i32 %116 to i64
  %118 = getelementptr inbounds [100 x i32], [100 x i32]* %115, i64 0, i64 %117
  %119 = load i32, i32* %118, align 4
  %120 = call i32 (i8*, ...) @printf(i8* getelementptr inbounds ([4 x i8], [4 x i8]* @.str.2, i64 0, i64 0), i32 %119)
  br label %121

121:                                              ; preds = %109
  %122 = load i32, i32* %4, align 4
  %123 = add nsw i32 %122, -1
  store i32 %123, i32* %4, align 4
  br label %105

124:                                              ; preds = %105
  %125 = load i32, i32* %6, align 4
  %126 = load i32, i32* %2, align 4
  %127 = sub nsw i32 %125, %126
  %128 = sub nsw i32 %127, 1
  %129 = load i32, i32* %2, align 4
  %130 = icmp sle i32 %128, %129
  br i1 %130, label %131, label %132

131:                                              ; preds = %124
  br label %157

132:                                              ; preds = %124
  %133 = load i32, i32* %5, align 4
  %134 = sub nsw i32 %133, 2
  %135 = load i32, i32* %2, align 4
  %136 = sub nsw i32 %134, %135
  store i32 %136, i32* %3, align 4
  br label %137

137:                                              ; preds = %150, %132
  %138 = load i32, i32* %3, align 4
  %139 = load i32, i32* %2, align 4
  %140 = icmp sgt i32 %138, %139
  br i1 %140, label %141, label %153

141:                                              ; preds = %137
  %142 = load i32, i32* %3, align 4
  %143 = sext i32 %142 to i64
  %144 = getelementptr inbounds [100 x [100 x i32]], [100 x [100 x i32]]* %7, i64 0, i64 %143
  %145 = load i32, i32* %2, align 4
  %146 = sext i32 %145 to i64
  %147 = getelementptr inbounds [100 x i32], [100 x i32]* %144, i64 0, i64 %146
  %148 = load i32, i32* %147, align 4
  %149 = call i32 (i8*, ...) @printf(i8* getelementptr inbounds ([4 x i8], [4 x i8]* @.str.2, i64 0, i64 0), i32 %148)
  br label %150

150:                                              ; preds = %141
  %151 = load i32, i32* %3, align 4
  %152 = add nsw i32 %151, -1
  store i32 %152, i32* %3, align 4
  br label %137

153:                                              ; preds = %137
  br label %154

154:                                              ; preds = %153
  %155 = load i32, i32* %2, align 4
  %156 = add nsw i32 %155, 1
  store i32 %156, i32* %2, align 4
  br label %34

157:                                              ; preds = %131, %99, %44
  ret i32 0
}

declare dso_local i32 @__isoc99_scanf(i8*, ...) #1

declare dso_local i32 @printf(i8*, ...) #1


!llvm.module.flags = !{!0}
!llvm.ident = !{!1}

!0 = !{i32 1, !"wchar_size", i32 4}
!1 = !{!"clang version 10.0.0-4ubuntu1 "}
